target datalayout = "e-m:e-p270:32:32-p271:32:32-p272:64:64-i64:64-i128:128-f80:128-n8:16:32:64-S128"
target triple = "x86_64-pc-linux-gnu"

%struct._zval_struct = type { %union._zend_value, %union.anon.3, %union.anon.6 }
%union._zend_value = type { i64 }
%union.anon.3 = type { i32 }
%union.anon.6 = type { i32 }
%struct._zend_refcounted_h = type { i32, %union.anon }
%union.anon = type { i32 }
%struct._spl_SplObjectStorageElement = type { ptr, %struct._zval_struct }

; Function Attrs: nounwind uwtable
define internal void @spl_object_storage_dtor(ptr noundef %0) #0 {
  %2 = alloca ptr, align 8
  %3 = alloca ptr, align 8
  %4 = alloca ptr, align 8
  %5 = alloca ptr, align 8
  store ptr %0, ptr %4, align 8
  %6 = load ptr, ptr %4, align 8
  %7 = getelementptr inbounds %struct._zval_struct, ptr %6, i32 0, i32 0
  %8 = load ptr, ptr %7, align 8
  store ptr %8, ptr %5, align 8
  %9 = load ptr, ptr %5, align 8
  %10 = getelementptr inbounds %struct._spl_SplObjectStorageElement, ptr %9, i32 0, i32 0
  %11 = load ptr, ptr %10, align 8
  store ptr %11, ptr %3, align 8
  %12 = load ptr, ptr %3, align 8
  store ptr %12, ptr %2, align 8
  %13 = load ptr, ptr %2, align 8
  %14 = load i32, ptr %13, align 4
  %15 = icmp ugt i32 %14, 0
  call void @llvm.assume(i1 %15)
  %16 = load ptr, ptr %2, align 8
  %17 = load i32, ptr %16, align 4
  %18 = add i32 %17, -1
  store i32 %18, ptr %16, align 4
  %19 = icmp eq i32 %18, 0
  br i1 %19, label %20, label %22

20:                                               ; preds = %1
  %21 = load ptr, ptr %3, align 8
  call void @zend_objects_store_del(ptr noundef %21) #10
  br label %31

22:                                               ; preds = %1
  %23 = load ptr, ptr %3, align 8
  %24 = getelementptr inbounds %struct._zend_refcounted_h, ptr %23, i32 0, i32 1
  %25 = load i32, ptr %24, align 4
  %26 = and i32 %25, -1008
  %27 = icmp eq i32 %26, 0
  br i1 %27, label %28, label %30

28:                                               ; preds = %22
  %29 = load ptr, ptr %3, align 8
  call void @gc_possible_root(ptr noundef %29) #10
  br label %30

30:                                               ; preds = %28, %22
  br label %31

31:                                               ; preds = %30, %20
  %32 = load ptr, ptr %5, align 8
  %33 = getelementptr inbounds %struct._spl_SplObjectStorageElement, ptr %32, i32 0, i32 1
  call void @zval_ptr_dtor(ptr noundef %33)
  %34 = load ptr, ptr %5, align 8
  call void @_efree(ptr noundef %34)
  ret void
}