; Function Attrs: nounwind uwtable
define internal void @spl_object_storage_dtor(ptr nocapture noundef readonly %0) #0 {
  %2 = load ptr, ptr %0, align 8
  %3 = load ptr, ptr %2, align 8
  %4 = load i32, ptr %3, align 4
  %5 = icmp ne i32 %4, 0
  tail call void @llvm.assume(i1 %5)
  %6 = add i32 %4, -1
  store i32 %6, ptr %3, align 4
  %7 = icmp eq i32 %6, 0
  br i1 %7, label %8, label %9

8:                                                ; preds = %1
  tail call void @zend_objects_store_del(ptr noundef nonnull %3) #10
  br label %15

9:                                                ; preds = %1
  %10 = getelementptr inbounds i8, ptr %3, i64 4
  %11 = load i32, ptr %10, align 4
  %12 = and i32 %11, -1008
  %13 = icmp eq i32 %12, 0
  br i1 %13, label %14, label %15

14:                                               ; preds = %9
  tail call void @gc_possible_root(ptr noundef nonnull %3) #10
  br label %15

15:                                               ; preds = %9, %14, %8
  %16 = getelementptr inbounds i8, ptr %2, i64 8
  tail call void @zval_ptr_dtor(ptr noundef nonnull %16) #10
  tail call void @_efree(ptr noundef nonnull %2) #10
  ret void
}